target datalayout = "e-m:e-p270:32:32-p271:32:32-p272:64:64-i64:64-i128:128-f80:128-n8:16:32:64-S128"
target triple = "x86_64-pc-linux-gnu"

%struct.ec_key_st = type { ptr, ptr, i32, ptr, ptr, ptr, i32, i32, %struct.CRYPTO_REF_COUNT, i32, %struct.crypto_ex_data_st, ptr, ptr, i64 }
%struct.CRYPTO_REF_COUNT = type { i32 }
%struct.crypto_ex_data_st = type { ptr, ptr }

@.str.2 = private unnamed_addr constant [31 x i8] c"../openssl/crypto/ec/ec_asn1.c\00", align 1
@__func__.i2o_ECPublicKey = private unnamed_addr constant [16 x i8] c"i2o_ECPublicKey\00", align 1

; Function Attrs: nounwind uwtable
define i32 @i2o_ECPublicKey(ptr noundef %0, ptr noundef %1) #0 {
  %3 = alloca i32, align 4
  %4 = alloca ptr, align 8
  %5 = alloca ptr, align 8
  %6 = alloca i64, align 8
  %7 = alloca i32, align 4
  %8 = alloca i32, align 4
  store ptr %0, ptr %4, align 8, !tbaa !81
  store ptr %1, ptr %5, align 8, !tbaa !14
  call void @llvm.lifetime.start.p0(i64 8, ptr %6) #4
  store i64 0, ptr %6, align 8, !tbaa !16
  call void @llvm.lifetime.start.p0(i64 4, ptr %7) #4
  store i32 0, ptr %7, align 4, !tbaa !38
  %9 = load ptr, ptr %4, align 8, !tbaa !81
  %10 = icmp eq ptr %9, null
  br i1 %10, label %16, label %11

11:                                               ; preds = %2
  %12 = load ptr, ptr %4, align 8, !tbaa !81
  %13 = getelementptr inbounds nuw %struct.ec_key_st, ptr %12, i32 0, i32 4
  %14 = load ptr, ptr %13, align 8, !tbaa !95
  %15 = icmp eq ptr %14, null
  br i1 %15, label %16, label %17

16:                                               ; preds = %11, %2
  call void @ERR_new()
  call void @ERR_set_debug(ptr noundef @.str.2, i32 noundef 1160, ptr noundef @__func__.i2o_ECPublicKey)
  call void (i32, i32, ptr, ...) @ERR_set_error(i32 noundef 16, i32 noundef 786690, ptr noundef null)
  store i32 0, ptr %3, align 4
  store i32 1, ptr %8, align 4
  br label %81

17:                                               ; preds = %11
  %18 = load ptr, ptr %4, align 8, !tbaa !81
  %19 = getelementptr inbounds nuw %struct.ec_key_st, ptr %18, i32 0, i32 3
  %20 = load ptr, ptr %19, align 8, !tbaa !85
  %21 = load ptr, ptr %4, align 8, !tbaa !81
  %22 = getelementptr inbounds nuw %struct.ec_key_st, ptr %21, i32 0, i32 4
  %23 = load ptr, ptr %22, align 8, !tbaa !95
  %24 = load ptr, ptr %4, align 8, !tbaa !81
  %25 = getelementptr inbounds nuw %struct.ec_key_st, ptr %24, i32 0, i32 7
  %26 = load i32, ptr %25, align 4, !tbaa !102
  %27 = call i64 @EC_POINT_point2oct(ptr noundef %20, ptr noundef %23, i32 noundef %26, ptr noundef null, i64 noundef 0, ptr noundef null)
  store i64 %27, ptr %6, align 8, !tbaa !16
  %28 = load ptr, ptr %5, align 8, !tbaa !14
  %29 = icmp eq ptr %28, null
  br i1 %29, label %33, label %30

30:                                               ; preds = %17
  %31 = load i64, ptr %6, align 8, !tbaa !16
  %32 = icmp eq i64 %31, 0
  br i1 %32, label %33, label %36

33:                                               ; preds = %30, %17
  %34 = load i64, ptr %6, align 8, !tbaa !16
  %35 = trunc i64 %34 to i32
  store i32 %35, ptr %3, align 4
  store i32 1, ptr %8, align 4
  br label %81

36:                                               ; preds = %30
  %37 = load ptr, ptr %5, align 8, !tbaa !14
  %38 = load ptr, ptr %37, align 8, !tbaa !26
  %39 = icmp eq ptr %38, null
  br i1 %39, label %40, label %47

40:                                               ; preds = %36
  %41 = load i64, ptr %6, align 8, !tbaa !16
  %42 = call noalias ptr @CRYPTO_malloc(i64 noundef %41, ptr noundef @.str.2, i32 noundef 1172)
  %43 = load ptr, ptr %5, align 8, !tbaa !14
  store ptr %42, ptr %43, align 8, !tbaa !26
  %44 = icmp eq ptr %42, null
  br i1 %44, label %45, label %46

45:                                               ; preds = %40
  store i32 0, ptr %3, align 4
  store i32 1, ptr %8, align 4
  br label %81

46:                                               ; preds = %40
  store i32 1, ptr %7, align 4, !tbaa !38
  br label %47

47:                                               ; preds = %46, %36
  %48 = load ptr, ptr %4, align 8, !tbaa !81
  %49 = getelementptr inbounds nuw %struct.ec_key_st, ptr %48, i32 0, i32 3
  %50 = load ptr, ptr %49, align 8, !tbaa !85
  %51 = load ptr, ptr %4, align 8, !tbaa !81
  %52 = getelementptr inbounds nuw %struct.ec_key_st, ptr %51, i32 0, i32 4
  %53 = load ptr, ptr %52, align 8, !tbaa !95
  %54 = load ptr, ptr %4, align 8, !tbaa !81
  %55 = getelementptr inbounds nuw %struct.ec_key_st, ptr %54, i32 0, i32 7
  %56 = load i32, ptr %55, align 4, !tbaa !102
  %57 = load ptr, ptr %5, align 8, !tbaa !14
  %58 = load ptr, ptr %57, align 8, !tbaa !26
  %59 = load i64, ptr %6, align 8, !tbaa !16
  %60 = call i64 @EC_POINT_point2oct(ptr noundef %50, ptr noundef %53, i32 noundef %56, ptr noundef %58, i64 noundef %59, ptr noundef null)
  %61 = icmp ne i64 %60, 0
  br i1 %61, label %70, label %62

62:                                               ; preds = %47
  call void @ERR_new()
  call void @ERR_set_debug(ptr noundef @.str.2, i32 noundef 1178, ptr noundef @__func__.i2o_ECPublicKey)
  call void (i32, i32, ptr, ...) @ERR_set_error(i32 noundef 16, i32 noundef 524304, ptr noundef null)
  %63 = load i32, ptr %7, align 4, !tbaa !38
  %64 = icmp ne i32 %63, 0
  br i1 %64, label %65, label %69

65:                                               ; preds = %62
  %66 = load ptr, ptr %5, align 8, !tbaa !14
  %67 = load ptr, ptr %66, align 8, !tbaa !26
  call void @CRYPTO_free(ptr noundef %67, ptr noundef @.str.2, i32 noundef 1180)
  %68 = load ptr, ptr %5, align 8, !tbaa !14
  store ptr null, ptr %68, align 8, !tbaa !26
  br label %69

69:                                               ; preds = %65, %62
  store i32 0, ptr %3, align 4
  store i32 1, ptr %8, align 4
  br label %81

70:                                               ; preds = %47
  %71 = load i32, ptr %7, align 4, !tbaa !38
  %72 = icmp ne i32 %71, 0
  br i1 %72, label %78, label %73

73:                                               ; preds = %70
  %74 = load i64, ptr %6, align 8, !tbaa !16
  %75 = load ptr, ptr %5, align 8, !tbaa !14
  %76 = load ptr, ptr %75, align 8, !tbaa !26
  %77 = getelementptr inbounds nuw i8, ptr %76, i64 %74
  store ptr %77, ptr %75, align 8, !tbaa !26
  br label %78

78:                                               ; preds = %73, %70
  %79 = load i64, ptr %6, align 8, !tbaa !16
  %80 = trunc i64 %79 to i32
  store i32 %80, ptr %3, align 4
  store i32 1, ptr %8, align 4
  br label %81

81:                                               ; preds = %78, %69, %45, %33, %16
  call void @llvm.lifetime.end.p0(i64 4, ptr %7) #4
  call void @llvm.lifetime.end.p0(i64 8, ptr %6) #4
  %82 = load i32, ptr %3, align 4
  ret i32 %82
}