; Function Attrs: nounwind uwtable
define i32 @i2o_ECPublicKey(ptr noundef readonly captures(address_is_null) %0, ptr noundef captures(address_is_null) %1) local_unnamed_addr #0 {
  %3 = icmp eq ptr %0, null
  br i1 %3, label %8, label %4

4:                                                ; preds = %2
  %5 = getelementptr inbounds nuw i8, ptr %0, i64 32
  %6 = load ptr, ptr %5, align 8, !tbaa !67
  %7 = icmp eq ptr %6, null
  br i1 %7, label %8, label %9

8:                                                ; preds = %4, %2
  tail call void @ERR_new() #8
  tail call void @ERR_set_debug(ptr noundef nonnull @.str.2, i32 noundef 1160, ptr noundef nonnull @__func__.i2o_ECPublicKey) #8
  tail call void (i32, i32, ptr, ...) @ERR_set_error(i32 noundef 16, i32 noundef 786690, ptr noundef null) #8
  br label %39

9:                                                ; preds = %4
  %10 = getelementptr inbounds nuw i8, ptr %0, i64 24
  %11 = load ptr, ptr %10, align 8, !tbaa !57
  %12 = getelementptr inbounds nuw i8, ptr %0, i64 52
  %13 = load i32, ptr %12, align 4, !tbaa !74
  %14 = tail call i64 @EC_POINT_point2oct(ptr noundef %11, ptr noundef nonnull %6, i32 noundef %13, ptr noundef null, i64 noundef 0, ptr noundef null) #8
  %15 = icmp eq ptr %1, null
  %16 = icmp eq i64 %14, 0
  %or.cond = select i1 %15, i1 true, i1 %16
  br i1 %or.cond, label %17, label %19

17:                                               ; preds = %9
  %18 = trunc i64 %14 to i32
  br label %39

19:                                               ; preds = %9
  %20 = load ptr, ptr %1, align 8, !tbaa !3
  %.not30.not = icmp eq ptr %20, null
  br i1 %.not30.not, label %21, label %24

21:                                               ; preds = %19
  %22 = tail call noalias ptr @CRYPTO_malloc(i64 noundef %14, ptr noundef nonnull @.str.2, i32 noundef 1172) #8
  store ptr %22, ptr %1, align 8, !tbaa !3
  %23 = icmp eq ptr %22, null
  br i1 %23, label %39, label %24

24:                                               ; preds = %21, %19
  %25 = phi ptr [ %22, %21 ], [ %20, %19 ]
  %26 = load ptr, ptr %10, align 8, !tbaa !57
  %27 = load ptr, ptr %5, align 8, !tbaa !67
  %28 = load i32, ptr %12, align 4, !tbaa !74
  %29 = tail call i64 @EC_POINT_point2oct(ptr noundef %26, ptr noundef %27, i32 noundef %28, ptr noundef nonnull %25, i64 noundef %14, ptr noundef null) #8
  %.not = icmp eq i64 %29, 0
  br i1 %.not, label %30, label %33

30:                                               ; preds = %24
  tail call void @ERR_new() #8
  tail call void @ERR_set_debug(ptr noundef nonnull @.str.2, i32 noundef 1178, ptr noundef nonnull @__func__.i2o_ECPublicKey) #8
  tail call void (i32, i32, ptr, ...) @ERR_set_error(i32 noundef 16, i32 noundef 524304, ptr noundef null) #8
  br i1 %.not30.not, label %31, label %39

31:                                               ; preds = %30
  %32 = load ptr, ptr %1, align 8, !tbaa !3
  tail call void @CRYPTO_free(ptr noundef %32, ptr noundef nonnull @.str.2, i32 noundef 1180) #8
  store ptr null, ptr %1, align 8, !tbaa !3
  br label %39

33:                                               ; preds = %24
  br i1 %.not30.not, label %37, label %34

34:                                               ; preds = %33
  %35 = load ptr, ptr %1, align 8, !tbaa !3
  %36 = getelementptr inbounds nuw i8, ptr %35, i64 %14
  store ptr %36, ptr %1, align 8, !tbaa !3
  br label %37

37:                                               ; preds = %34, %33
  %38 = trunc i64 %14 to i32
  br label %39

39:                                               ; preds = %30, %31, %21, %37, %17, %8
  %.024 = phi i32 [ 0, %8 ], [ %18, %17 ], [ %38, %37 ], [ 0, %21 ], [ 0, %31 ], [ 0, %30 ]
  ret i32 %.024
}